target datalayout = "e-m:e-p270:32:32-p271:32:32-p272:64:64-i64:64-i128:128-f80:128-n8:16:32:64-S128"
target triple = "x86_64-pc-linux-gnu"

; Function Attrs: nounwind uwtable
define internal double @compute_ptp_dbl(ptr noundef %0, double noundef %1, double noundef %2, i32 noundef %3, ptr noundef %4, ptr noundef %5) #2 {
  %7 = alloca ptr, align 8
  %8 = alloca double, align 8
  %9 = alloca double, align 8
  %10 = alloca i32, align 4
  %11 = alloca ptr, align 8
  %12 = alloca ptr, align 8
  %13 = alloca i32, align 4
  %14 = alloca i32, align 4
  %15 = alloca i32, align 4
  %16 = alloca double, align 8
  %17 = alloca double, align 8
  %18 = alloca double, align 8
  store ptr %0, ptr %7, align 8, !tbaa !100
  store double %1, ptr %8, align 8, !tbaa !101
  store double %2, ptr %9, align 8, !tbaa !101
  store i32 %3, ptr %10, align 4, !tbaa !35
  store ptr %4, ptr %11, align 8, !tbaa !99
  store ptr %5, ptr %12, align 8, !tbaa !99
  call void @llvm.lifetime.start.p0(i64 4, ptr %13) #7
  %19 = load ptr, ptr %11, align 8, !tbaa !99
  %20 = load i32, ptr %19, align 4, !tbaa !35
  store i32 %20, ptr %13, align 4, !tbaa !35
  call void @llvm.lifetime.start.p0(i64 4, ptr %14) #7
  %21 = load ptr, ptr %12, align 8, !tbaa !99
  %22 = load i32, ptr %21, align 4, !tbaa !35
  store i32 %22, ptr %14, align 4, !tbaa !35
  call void @llvm.lifetime.start.p0(i64 4, ptr %15) #7
  %23 = load i32, ptr %13, align 4, !tbaa !35
  %24 = load i32, ptr %14, align 4, !tbaa !35
  %25 = icmp eq i32 %23, %24
  br i1 %25, label %26, label %33

26:                                               ; preds = %6
  %27 = load ptr, ptr %7, align 8, !tbaa !100
  %28 = load i32, ptr %13, align 4, !tbaa !35
  %29 = sext i32 %28 to i64
  %30 = getelementptr inbounds double, ptr %27, i64 %29
  %31 = load double, ptr %30, align 8, !tbaa !101
  %32 = fcmp nsz oeq double %31, 0xFFEFFFFFFFFFFFFF
  br label %33

33:                                               ; preds = %26, %6
  %34 = phi i1 [ false, %6 ], [ %32, %26 ]
  %35 = zext i1 %34 to i32
  store i32 %35, ptr %15, align 4, !tbaa !35
  call void @llvm.lifetime.start.p0(i64 8, ptr %16) #7
  call void @llvm.lifetime.start.p0(i64 8, ptr %17) #7
  call void @llvm.lifetime.start.p0(i64 8, ptr %18) #7
  %36 = load i32, ptr %15, align 4, !tbaa !35
  %37 = icmp ne i32 %36, 0
  br i1 %37, label %68, label %38

38:                                               ; preds = %33
  %39 = load double, ptr %9, align 8, !tbaa !101
  %40 = load ptr, ptr %7, align 8, !tbaa !100
  %41 = load i32, ptr %13, align 4, !tbaa !35
  %42 = sext i32 %41 to i64
  %43 = getelementptr inbounds double, ptr %40, i64 %42
  %44 = load double, ptr %43, align 8, !tbaa !101
  %45 = fcmp nsz oeq double %39, %44
  br i1 %45, label %46, label %68

46:                                               ; preds = %38
  %47 = load ptr, ptr %7, align 8, !tbaa !100
  %48 = load i32, ptr %13, align 4, !tbaa !35
  %49 = sext i32 %48 to i64
  %50 = getelementptr inbounds double, ptr %47, i64 %49
  store double 0xFFEFFFFFFFFFFFFF, ptr %50, align 8, !tbaa !101
  %51 = load i32, ptr %14, align 4, !tbaa !35
  %52 = load i32, ptr %13, align 4, !tbaa !35
  %53 = icmp ne i32 %51, %52
  br i1 %53, label %54, label %63

54:                                               ; preds = %46
  %55 = load i32, ptr %13, align 4, !tbaa !35
  %56 = add nsw i32 %55, -1
  store i32 %56, ptr %13, align 4, !tbaa !35
  %57 = load i32, ptr %13, align 4, !tbaa !35
  %58 = icmp slt i32 %57, 0
  br i1 %58, label %59, label %62

59:                                               ; preds = %54
  %60 = load i32, ptr %10, align 4, !tbaa !35
  %61 = sub nsw i32 %60, 1
  store i32 %61, ptr %13, align 4, !tbaa !35
  br label %62

62:                                               ; preds = %59, %54
  br label %63

63:                                               ; preds = %62, %46
  %64 = load i32, ptr %13, align 4, !tbaa !35
  %65 = load i32, ptr %14, align 4, !tbaa !35
  %66 = icmp eq i32 %64, %65
  %67 = zext i1 %66 to i32
  store i32 %67, ptr %15, align 4, !tbaa !35
  br label %68

68:                                               ; preds = %63, %38, %33
  %69 = load i32, ptr %15, align 4, !tbaa !35
  %70 = icmp ne i32 %69, 0
  br i1 %70, label %100, label %71

71:                                               ; preds = %68
  %72 = load double, ptr %8, align 8, !tbaa !101
  %73 = load ptr, ptr %7, align 8, !tbaa !100
  %74 = load i32, ptr %13, align 4, !tbaa !35
  %75 = sext i32 %74 to i64
  %76 = getelementptr inbounds double, ptr %73, i64 %75
  %77 = load double, ptr %76, align 8, !tbaa !101
  %78 = fcmp nsz oge double %72, %77
  br i1 %78, label %79, label %100

79:                                               ; preds = %71
  br label %80

80:                                               ; preds = %98, %79
  br label %81

81:                                               ; preds = %80
  %82 = load ptr, ptr %7, align 8, !tbaa !100
  %83 = load i32, ptr %13, align 4, !tbaa !35
  %84 = sext i32 %83 to i64
  %85 = getelementptr inbounds double, ptr %82, i64 %84
  store double 0xFFEFFFFFFFFFFFFF, ptr %85, align 8, !tbaa !101
  %86 = load i32, ptr %14, align 4, !tbaa !35
  %87 = load i32, ptr %13, align 4, !tbaa !35
  %88 = icmp eq i32 %86, %87
  br i1 %88, label %89, label %90

89:                                               ; preds = %81
  store i32 1, ptr %15, align 4, !tbaa !35
  br label %99

90:                                               ; preds = %81
  %91 = load i32, ptr %13, align 4, !tbaa !35
  %92 = add nsw i32 %91, -1
  store i32 %92, ptr %13, align 4, !tbaa !35
  %93 = load i32, ptr %13, align 4, !tbaa !35
  %94 = icmp slt i32 %93, 0
  br i1 %94, label %95, label %98

95:                                               ; preds = %90
  %96 = load i32, ptr %10, align 4, !tbaa !35
  %97 = sub nsw i32 %96, 1
  store i32 %97, ptr %13, align 4, !tbaa !35
  br label %98

98:                                               ; preds = %95, %90
  br label %80

99:                                               ; preds = %89
  br label %100

100:                                              ; preds = %99, %71, %68
  br label %101

101:                                              ; preds = %130, %100
  %102 = load i32, ptr %15, align 4, !tbaa !35
  %103 = icmp ne i32 %102, 0
  br i1 %103, label %112, label %104

104:                                              ; preds = %101
  %105 = load double, ptr %8, align 8, !tbaa !101
  %106 = load ptr, ptr %7, align 8, !tbaa !100
  %107 = load i32, ptr %14, align 4, !tbaa !35
  %108 = sext i32 %107 to i64
  %109 = getelementptr inbounds double, ptr %106, i64 %108
  %110 = load double, ptr %109, align 8, !tbaa !101
  %111 = fcmp nsz oge double %105, %110
  br label %112

112:                                              ; preds = %104, %101
  %113 = phi i1 [ false, %101 ], [ %111, %104 ]
  br i1 %113, label %114, label %131

114:                                              ; preds = %112
  %115 = load ptr, ptr %7, align 8, !tbaa !100
  %116 = load i32, ptr %14, align 4, !tbaa !35
  %117 = sext i32 %116 to i64
  %118 = getelementptr inbounds double, ptr %115, i64 %117
  store double 0xFFEFFFFFFFFFFFFF, ptr %118, align 8, !tbaa !101
  %119 = load i32, ptr %14, align 4, !tbaa !35
  %120 = load i32, ptr %13, align 4, !tbaa !35
  %121 = icmp eq i32 %119, %120
  br i1 %121, label %122, label %123

122:                                              ; preds = %114
  store i32 1, ptr %15, align 4, !tbaa !35
  br label %131

123:                                              ; preds = %114
  %124 = load i32, ptr %14, align 4, !tbaa !35
  %125 = add nsw i32 %124, 1
  store i32 %125, ptr %14, align 4, !tbaa !35
  %126 = load i32, ptr %14, align 4, !tbaa !35
  %127 = load i32, ptr %10, align 4, !tbaa !35
  %128 = icmp sge i32 %126, %127
  br i1 %128, label %129, label %130

129:                                              ; preds = %123
  store i32 0, ptr %14, align 4, !tbaa !35
  br label %130

130:                                              ; preds = %129, %123
  br label %101, !llvm.loop !104

131:                                              ; preds = %122, %112
  %132 = load i32, ptr %15, align 4, !tbaa !35
  %133 = icmp ne i32 %132, 0
  br i1 %133, label %143, label %134

134:                                              ; preds = %131
  %135 = load i32, ptr %14, align 4, !tbaa !35
  %136 = add nsw i32 %135, -1
  store i32 %136, ptr %14, align 4, !tbaa !35
  %137 = load i32, ptr %14, align 4, !tbaa !35
  %138 = icmp slt i32 %137, 0
  br i1 %138, label %139, label %142

139:                                              ; preds = %134
  %140 = load i32, ptr %10, align 4, !tbaa !35
  %141 = sub nsw i32 %140, 1
  store i32 %141, ptr %14, align 4, !tbaa !35
  br label %142

142:                                              ; preds = %139, %134
  br label %143

143:                                              ; preds = %142, %131
  %144 = load double, ptr %8, align 8, !tbaa !101
  %145 = load ptr, ptr %7, align 8, !tbaa !100
  %146 = load i32, ptr %14, align 4, !tbaa !35
  %147 = sext i32 %146 to i64
  %148 = getelementptr inbounds double, ptr %145, i64 %147
  store double %144, ptr %148, align 8, !tbaa !101
  %149 = load ptr, ptr %7, align 8, !tbaa !100
  %150 = load i32, ptr %13, align 4, !tbaa !35
  %151 = sext i32 %150 to i64
  %152 = getelementptr inbounds double, ptr %149, i64 %151
  %153 = load double, ptr %152, align 8, !tbaa !101
  store double %153, ptr %17, align 8, !tbaa !101
  %154 = load double, ptr %8, align 8, !tbaa !101
  store double %154, ptr %18, align 8, !tbaa !101
  %155 = load double, ptr %18, align 8, !tbaa !101
  %156 = call nsz double @llvm.fabs.f64(double %155)
  %157 = load double, ptr %17, align 8, !tbaa !101
  %158 = load double, ptr %18, align 8, !tbaa !101
  %159 = fsub nsz double %157, %158
  %160 = call nsz double @llvm.fabs.f64(double %159)
  %161 = fadd nsz double %156, %160
  store double %161, ptr %16, align 8, !tbaa !101
  %162 = load i32, ptr %13, align 4, !tbaa !35
  %163 = load ptr, ptr %11, align 8, !tbaa !99
  store i32 %162, ptr %163, align 4, !tbaa !35
  %164 = load i32, ptr %14, align 4, !tbaa !35
  %165 = load ptr, ptr %12, align 8, !tbaa !99
  store i32 %164, ptr %165, align 4, !tbaa !35
  %166 = load double, ptr %16, align 8, !tbaa !101
  call void @llvm.lifetime.end.p0(i64 8, ptr %18) #7
  call void @llvm.lifetime.end.p0(i64 8, ptr %17) #7
  call void @llvm.lifetime.end.p0(i64 8, ptr %16) #7
  call void @llvm.lifetime.end.p0(i64 4, ptr %15) #7
  call void @llvm.lifetime.end.p0(i64 4, ptr %14) #7
  call void @llvm.lifetime.end.p0(i64 4, ptr %13) #7
  ret double %166
}