; Function Attrs: nofree norecurse nosync nounwind memory(argmem: readwrite) uwtable
define internal double @compute_ptp_dbl(ptr noundef captures(none) %0, double noundef %1, double noundef %2, i32 noundef %3, ptr noundef captures(none) %4, ptr noundef captures(none) %5) #8 {
  %7 = load i32, ptr %4, align 4, !tbaa !52
  %8 = load i32, ptr %5, align 4, !tbaa !52
  %9 = icmp eq i32 %7, %8
  %10 = sext i32 %7 to i64
  %11 = getelementptr inbounds double, ptr %0, i64 %10
  %12 = load double, ptr %11, align 8, !tbaa !101
  %13 = fcmp nsz oeq double %12, 0xFFEFFFFFFFFFFFFF
  %or.cond = select i1 %9, i1 %13, i1 false
  br i1 %or.cond, label %.critedge73, label %.thread

.thread:                                          ; preds = %6
  %14 = fcmp nsz oeq double %2, %12
  br i1 %14, label %15, label %.thread78

15:                                               ; preds = %.thread
  %16 = getelementptr inbounds double, ptr %0, i64 %10
  store double 0xFFEFFFFFFFFFFFFF, ptr %16, align 8, !tbaa !101
  %17 = icmp slt i32 %7, 1
  %spec.select.v = select i1 %17, i32 %3, i32 %7
  %spec.select = add nsw i32 %spec.select.v, -1
  %.1 = select i1 %9, i32 %7, i32 %spec.select
  %18 = icmp eq i32 %.1, %8
  br i1 %18, label %.critedge73, label %..thread78_crit_edge

..thread78_crit_edge:                             ; preds = %15
  %.phi.trans.insert95 = sext i32 %.1 to i64
  %.phi.trans.insert96 = getelementptr inbounds double, ptr %0, i64 %.phi.trans.insert95
  %.pre97 = load double, ptr %.phi.trans.insert96, align 8, !tbaa !101
  br label %.thread78

.thread78:                                        ; preds = %..thread78_crit_edge, %.thread
  %.pre-phi98 = phi i64 [ %.phi.trans.insert95, %..thread78_crit_edge ], [ %10, %.thread ]
  %19 = phi double [ %.pre97, %..thread78_crit_edge ], [ %12, %.thread ]
  %.081 = phi i32 [ %.1, %..thread78_crit_edge ], [ %7, %.thread ]
  %20 = fcmp nsz ult double %1, %19
  br i1 %20, label %.lr.ph85.split.us, label %.preheader

.preheader:                                       ; preds = %.thread78
  %21 = getelementptr inbounds double, ptr %0, i64 %.pre-phi98
  store double 0xFFEFFFFFFFFFFFFF, ptr %21, align 8, !tbaa !101
  %22 = icmp eq i32 %8, %.081
  br i1 %22, label %.critedge73, label %.lr.ph

.lr.ph:                                           ; preds = %.preheader, %.lr.ph
  %.383 = phi i32 [ %.4, %.lr.ph ], [ %.081, %.preheader ]
  %23 = icmp slt i32 %.383, 1
  %spec.select72 = select i1 %23, i32 %3, i32 %.383
  %.4 = add nsw i32 %spec.select72, -1
  %24 = sext i32 %.4 to i64
  %25 = getelementptr inbounds double, ptr %0, i64 %24
  store double 0xFFEFFFFFFFFFFFFF, ptr %25, align 8, !tbaa !101
  %26 = icmp eq i32 %8, %.4
  br i1 %26, label %.critedge73, label %.lr.ph

.lr.ph85.split.us:                                ; preds = %.thread78
  %27 = sext i32 %8 to i64
  %28 = getelementptr inbounds double, ptr %0, i64 %27
  %29 = load double, ptr %28, align 8, !tbaa !101
  %30 = fcmp nsz ult double %1, %29
  br i1 %30, label %.critedge, label %.lr.ph91

.lr.ph91:                                         ; preds = %.lr.ph85.split.us, %33
  %31 = phi ptr [ %36, %33 ], [ %28, %.lr.ph85.split.us ]
  %.05884.us90 = phi i32 [ %spec.store.select.us, %33 ], [ %8, %.lr.ph85.split.us ]
  store double 0xFFEFFFFFFFFFFFFF, ptr %31, align 8, !tbaa !101
  %32 = icmp eq i32 %.05884.us90, %.081
  br i1 %32, label %.critedge73, label %33

33:                                               ; preds = %.lr.ph91
  %34 = add nsw i32 %.05884.us90, 1
  %.not70.us = icmp slt i32 %34, %3
  %spec.store.select.us = select i1 %.not70.us, i32 %34, i32 0
  %35 = sext i32 %spec.store.select.us to i64
  %36 = getelementptr inbounds double, ptr %0, i64 %35
  %37 = load double, ptr %36, align 8, !tbaa !101
  %38 = fcmp nsz ult double %1, %37
  br i1 %38, label %.critedge, label %.lr.ph91

.critedge:                                        ; preds = %33, %.lr.ph85.split.us
  %.us-phi = phi i32 [ %8, %.lr.ph85.split.us ], [ %spec.store.select.us, %33 ]
  %39 = icmp slt i32 %.us-phi, 1
  %spec.select74.v = select i1 %39, i32 %3, i32 %.us-phi
  %spec.select74 = add nsw i32 %spec.select74.v, -1
  br label %.critedge73

.critedge73:                                      ; preds = %.lr.ph, %.lr.ph91, %6, %.preheader, %15, %.critedge
  %.2101 = phi i32 [ %.081, %.critedge ], [ %8, %.preheader ], [ %8, %15 ], [ %7, %6 ], [ %.081, %.lr.ph91 ], [ %8, %.lr.ph ]
  %.159 = phi i32 [ %spec.select74, %.critedge ], [ %8, %.preheader ], [ %8, %15 ], [ %8, %6 ], [ %.081, %.lr.ph91 ], [ %8, %.lr.ph ]
  %40 = sext i32 %.159 to i64
  %41 = getelementptr inbounds double, ptr %0, i64 %40
  store double %1, ptr %41, align 8, !tbaa !101
  %42 = sext i32 %.2101 to i64
  %43 = getelementptr inbounds double, ptr %0, i64 %42
  %44 = load double, ptr %43, align 8, !tbaa !101
  %45 = tail call nsz double @llvm.fabs.f64(double %1)
  %46 = fsub nsz double %44, %1
  %47 = tail call nsz double @llvm.fabs.f64(double %46)
  %48 = fadd nsz double %45, %47
  store i32 %.2101, ptr %4, align 4, !tbaa !52
  store i32 %.159, ptr %5, align 4, !tbaa !52
  ret double %48
}